target datalayout = "e-m:e-p270:32:32-p271:32:32-p272:64:64-i64:64-i128:128-f80:128-n8:16:32:64-S128"
target triple = "x86_64-pc-linux-gnu"

%struct.H5VL_loc_params_t = type { i32, i32, %union.anon.0 }
%union.anon.0 = type { %struct.H5VL_loc_by_idx }
%struct.H5VL_loc_by_idx = type { ptr, i32, i32, i64, i64 }
%struct.H5VL_attr_specific_args_t = type { i32, %union.anon.4 }
%union.anon.4 = type { %struct.H5VL_attr_iterate_args_t }
%struct.H5VL_attr_iterate_args_t = type { i32, i32, ptr, ptr, ptr }
%struct.anon.6 = type { ptr, ptr }

@.str = private unnamed_addr constant [97 x i8] c"generated/home/dtcxzyw/WorkSpace/Projects/compilers/llvm-opt-benchmark/bench/hdf5/hdf5/src/H5A.c\00", align 1
@H5E_CANTSET_g = external global i64, align 8
@H5E_ATTR_g = external global i64, align 8
@H5E_ARGS_g = external global i64, align 8
@H5E_BADTYPE_g = external global i64, align 8
@H5P_LST_DATASET_XFER_ID_g = external global i64, align 8
@H5E_CANTGET_g = external global i64, align 8
@H5E_BADVALUE_g = external global i64, align 8
@.str.43 = private unnamed_addr constant [39 x i8] c"location is not valid for an attribute\00", align 1
@.str.55 = private unnamed_addr constant [18 x i8] c"no attribute name\00", align 1
@.str.88 = private unnamed_addr constant [34 x i8] c"can't set object access arguments\00", align 1
@.str.105 = private unnamed_addr constant [40 x i8] c"invalid pointer for attribute existence\00", align 1
@.str.106 = private unnamed_addr constant [40 x i8] c"unable to determine if attribute exists\00", align 1
@__func__.H5A__exists_common = private unnamed_addr constant [19 x i8] c"H5A__exists_common\00", align 1
@__func__.H5A__exists_by_name_api_common = private unnamed_addr constant [31 x i8] c"H5A__exists_by_name_api_common\00", align 1

; Function Attrs: nounwind uwtable
define internal i32 @H5A__exists_common(ptr noundef %0, ptr noundef %1, ptr noundef %2, ptr noundef %3, ptr noundef %4) #0 {
  %6 = alloca ptr, align 8
  %7 = alloca ptr, align 8
  %8 = alloca ptr, align 8
  %9 = alloca ptr, align 8
  %10 = alloca ptr, align 8
  %11 = alloca %struct.H5VL_attr_specific_args_t, align 8
  %12 = alloca i32, align 4
  %13 = alloca i8, align 1
  store ptr %0, ptr %6, align 8
  store ptr %1, ptr %7, align 8
  store ptr %2, ptr %8, align 8
  store ptr %3, ptr %9, align 8
  store ptr %4, ptr %10, align 8
  store i32 0, ptr %12, align 4
  store i8 0, ptr %13, align 1
  %14 = load ptr, ptr %8, align 8
  %15 = icmp ne ptr %14, null
  br i1 %15, label %16, label %20

16:                                               ; preds = %5
  %17 = load ptr, ptr %8, align 8
  %18 = load i8, ptr %17, align 1
  %19 = icmp ne i8 %18, 0
  br i1 %19, label %35, label %20

20:                                               ; preds = %16, %5
  br label %21

21:                                               ; preds = %20
  br label %22

22:                                               ; preds = %21
  br label %23

23:                                               ; preds = %22
  %24 = load i64, ptr @H5E_ARGS_g, align 8
  %25 = load i64, ptr @H5E_BADVALUE_g, align 8
  %26 = call i32 (ptr, ptr, i32, i64, i64, ptr, ...) @H5E_printf_stack(ptr noundef @.str, ptr noundef @__func__.H5A__exists_common, i32 noundef 2276, i64 noundef %24, i64 noundef %25, ptr noundef @.str.55)
  br label %27

27:                                               ; preds = %23
  store i8 1, ptr %13, align 1
  %28 = load i8, ptr %13, align 1
  %29 = trunc i8 %28 to i1
  %30 = zext i1 %29 to i8
  store i8 %30, ptr %13, align 1
  br label %31

31:                                               ; preds = %27
  br label %32

32:                                               ; preds = %31
  store i32 -1, ptr %12, align 4
  br label %65

33:                                               ; No predecessors!
  br label %34

34:                                               ; preds = %33
  br label %35

35:                                               ; preds = %34, %16
  %36 = getelementptr inbounds %struct.H5VL_attr_specific_args_t, ptr %11, i32 0, i32 0
  store i32 2, ptr %36, align 8
  %37 = load ptr, ptr %8, align 8
  %38 = getelementptr inbounds %struct.H5VL_attr_specific_args_t, ptr %11, i32 0, i32 1
  %39 = getelementptr inbounds %struct.anon.6, ptr %38, i32 0, i32 0
  store ptr %37, ptr %39, align 8
  %40 = load ptr, ptr %9, align 8
  %41 = getelementptr inbounds %struct.H5VL_attr_specific_args_t, ptr %11, i32 0, i32 1
  %42 = getelementptr inbounds %struct.anon.6, ptr %41, i32 0, i32 1
  store ptr %40, ptr %42, align 8
  %43 = load ptr, ptr %6, align 8
  %44 = load ptr, ptr %7, align 8
  %45 = load i64, ptr @H5P_LST_DATASET_XFER_ID_g, align 8
  %46 = load ptr, ptr %10, align 8
  %47 = call i32 @H5VL_attr_specific(ptr noundef %43, ptr noundef %44, ptr noundef %11, i64 noundef %45, ptr noundef %46)
  %48 = icmp slt i32 %47, 0
  br i1 %48, label %49, label %64

49:                                               ; preds = %35
  br label %50

50:                                               ; preds = %49
  br label %51

51:                                               ; preds = %50
  br label %52

52:                                               ; preds = %51
  %53 = load i64, ptr @H5E_ATTR_g, align 8
  %54 = load i64, ptr @H5E_CANTGET_g, align 8
  %55 = call i32 (ptr, ptr, i32, i64, i64, ptr, ...) @H5E_printf_stack(ptr noundef @.str, ptr noundef @__func__.H5A__exists_common, i32 noundef 2285, i64 noundef %53, i64 noundef %54, ptr noundef @.str.106)
  br label %56

56:                                               ; preds = %52
  store i8 1, ptr %13, align 1
  %57 = load i8, ptr %13, align 1
  %58 = trunc i8 %57 to i1
  %59 = zext i1 %58 to i8
  store i8 %59, ptr %13, align 1
  br label %60

60:                                               ; preds = %56
  br label %61

61:                                               ; preds = %60
  store i32 -1, ptr %12, align 4
  br label %65

62:                                               ; No predecessors!
  br label %63

63:                                               ; preds = %62
  br label %64

64:                                               ; preds = %63, %35
  br label %65

65:                                               ; preds = %64, %61, %32
  %66 = load i32, ptr %12, align 4
  ret i32 %66
}

; Function Attrs: nounwind uwtable
define internal i32 @H5A__exists_by_name_api_common(i64 noundef %0, ptr noundef %1, ptr noundef %2, ptr noundef %3, i64 noundef %4, ptr noundef %5, ptr noundef %6) #0 {
  %8 = alloca i64, align 8
  %9 = alloca ptr, align 8
  %10 = alloca ptr, align 8
  %11 = alloca ptr, align 8
  %12 = alloca i64, align 8
  %13 = alloca ptr, align 8
  %14 = alloca ptr, align 8
  %15 = alloca ptr, align 8
  %16 = alloca ptr, align 8
  %17 = alloca %struct.H5VL_loc_params_t, align 8
  %18 = alloca i32, align 4
  %19 = alloca i8, align 1
  store i64 %0, ptr %8, align 8
  store ptr %1, ptr %9, align 8
  store ptr %2, ptr %10, align 8
  store ptr %3, ptr %11, align 8
  store i64 %4, ptr %12, align 8
  store ptr %5, ptr %13, align 8
  store ptr %6, ptr %14, align 8
  store ptr null, ptr %15, align 8
  %20 = load ptr, ptr %14, align 8
  %21 = icmp ne ptr %20, null
  br i1 %21, label %22, label %24

22:                                               ; preds = %7
  %23 = load ptr, ptr %14, align 8
  br label %25

24:                                               ; preds = %7
  br label %25

25:                                               ; preds = %24, %22
  %26 = phi ptr [ %23, %22 ], [ %15, %24 ]
  store ptr %26, ptr %16, align 8
  store i32 0, ptr %18, align 4
  store i8 0, ptr %19, align 1
  %27 = load i64, ptr %8, align 8
  %28 = call i32 @H5I_get_type(i64 noundef %27)
  %29 = icmp eq i32 7, %28
  br i1 %29, label %30, label %45

30:                                               ; preds = %25
  br label %31

31:                                               ; preds = %30
  br label %32

32:                                               ; preds = %31
  br label %33

33:                                               ; preds = %32
  %34 = load i64, ptr @H5E_ARGS_g, align 8
  %35 = load i64, ptr @H5E_BADTYPE_g, align 8
  %36 = call i32 (ptr, ptr, i32, i64, i64, ptr, ...) @H5E_printf_stack(ptr noundef @.str, ptr noundef @__func__.H5A__exists_by_name_api_common, i32 noundef 2423, i64 noundef %34, i64 noundef %35, ptr noundef @.str.43)
  br label %37

37:                                               ; preds = %33
  store i8 1, ptr %19, align 1
  %38 = load i8, ptr %19, align 1
  %39 = trunc i8 %38 to i1
  %40 = zext i1 %39 to i8
  store i8 %40, ptr %19, align 1
  br label %41

41:                                               ; preds = %37
  br label %42

42:                                               ; preds = %41
  store i32 -1, ptr %18, align 4
  br label %131

43:                                               ; No predecessors!
  br label %44

44:                                               ; preds = %43
  br label %45

45:                                               ; preds = %44, %25
  %46 = load ptr, ptr %10, align 8
  %47 = icmp ne ptr %46, null
  br i1 %47, label %48, label %52

48:                                               ; preds = %45
  %49 = load ptr, ptr %10, align 8
  %50 = load i8, ptr %49, align 1
  %51 = icmp ne i8 %50, 0
  br i1 %51, label %67, label %52

52:                                               ; preds = %48, %45
  br label %53

53:                                               ; preds = %52
  br label %54

54:                                               ; preds = %53
  br label %55

55:                                               ; preds = %54
  %56 = load i64, ptr @H5E_ARGS_g, align 8
  %57 = load i64, ptr @H5E_BADVALUE_g, align 8
  %58 = call i32 (ptr, ptr, i32, i64, i64, ptr, ...) @H5E_printf_stack(ptr noundef @.str, ptr noundef @__func__.H5A__exists_by_name_api_common, i32 noundef 2425, i64 noundef %56, i64 noundef %57, ptr noundef @.str.55)
  br label %59

59:                                               ; preds = %55
  store i8 1, ptr %19, align 1
  %60 = load i8, ptr %19, align 1
  %61 = trunc i8 %60 to i1
  %62 = zext i1 %61 to i8
  store i8 %62, ptr %19, align 1
  br label %63

63:                                               ; preds = %59
  br label %64

64:                                               ; preds = %63
  store i32 -1, ptr %18, align 4
  br label %131

65:                                               ; No predecessors!
  br label %66

66:                                               ; preds = %65
  br label %67

67:                                               ; preds = %66, %48
  %68 = load ptr, ptr %11, align 8
  %69 = icmp eq ptr null, %68
  br i1 %69, label %70, label %85

70:                                               ; preds = %67
  br label %71

71:                                               ; preds = %70
  br label %72

72:                                               ; preds = %71
  br label %73

73:                                               ; preds = %72
  %74 = load i64, ptr @H5E_ARGS_g, align 8
  %75 = load i64, ptr @H5E_BADVALUE_g, align 8
  %76 = call i32 (ptr, ptr, i32, i64, i64, ptr, ...) @H5E_printf_stack(ptr noundef @.str, ptr noundef @__func__.H5A__exists_by_name_api_common, i32 noundef 2427, i64 noundef %74, i64 noundef %75, ptr noundef @.str.105)
  br label %77

77:                                               ; preds = %73
  store i8 1, ptr %19, align 1
  %78 = load i8, ptr %19, align 1
  %79 = trunc i8 %78 to i1
  %80 = zext i1 %79 to i8
  store i8 %80, ptr %19, align 1
  br label %81

81:                                               ; preds = %77
  br label %82

82:                                               ; preds = %81
  store i32 -1, ptr %18, align 4
  br label %131

83:                                               ; No predecessors!
  br label %84

84:                                               ; preds = %83
  br label %85

85:                                               ; preds = %84, %67
  %86 = load i64, ptr %8, align 8
  %87 = load ptr, ptr %9, align 8
  %88 = load i64, ptr %12, align 8
  %89 = load ptr, ptr %16, align 8
  %90 = call i32 @H5VL_setup_name_args(i64 noundef %86, ptr noundef %87, i1 noundef zeroext false, i64 noundef %88, ptr noundef %89, ptr noundef %17)
  %91 = icmp slt i32 %90, 0
  br i1 %91, label %92, label %107

92:                                               ; preds = %85
  br label %93

93:                                               ; preds = %92
  br label %94

94:                                               ; preds = %93
  br label %95

95:                                               ; preds = %94
  %96 = load i64, ptr @H5E_ATTR_g, align 8
  %97 = load i64, ptr @H5E_CANTSET_g, align 8
  %98 = call i32 (ptr, ptr, i32, i64, i64, ptr, ...) @H5E_printf_stack(ptr noundef @.str, ptr noundef @__func__.H5A__exists_by_name_api_common, i32 noundef 2432, i64 noundef %96, i64 noundef %97, ptr noundef @.str.88)
  br label %99

99:                                               ; preds = %95
  store i8 1, ptr %19, align 1
  %100 = load i8, ptr %19, align 1
  %101 = trunc i8 %100 to i1
  %102 = zext i1 %101 to i8
  store i8 %102, ptr %19, align 1
  br label %103

103:                                              ; preds = %99
  br label %104

104:                                              ; preds = %103
  store i32 -1, ptr %18, align 4
  br label %131

105:                                              ; No predecessors!
  br label %106

106:                                              ; preds = %105
  br label %107

107:                                              ; preds = %106, %85
  %108 = load ptr, ptr %16, align 8
  %109 = load ptr, ptr %108, align 8
  %110 = load ptr, ptr %10, align 8
  %111 = load ptr, ptr %11, align 8
  %112 = load ptr, ptr %13, align 8
  %113 = call i32 @H5A__exists_common(ptr noundef %109, ptr noundef %17, ptr noundef %110, ptr noundef %111, ptr noundef %112)
  %114 = icmp slt i32 %113, 0
  br i1 %114, label %115, label %130

115:                                              ; preds = %107
  br label %116

116:                                              ; preds = %115
  br label %117

117:                                              ; preds = %116
  br label %118

118:                                              ; preds = %117
  %119 = load i64, ptr @H5E_ATTR_g, align 8
  %120 = load i64, ptr @H5E_CANTGET_g, align 8
  %121 = call i32 (ptr, ptr, i32, i64, i64, ptr, ...) @H5E_printf_stack(ptr noundef @.str, ptr noundef @__func__.H5A__exists_by_name_api_common, i32 noundef 2436, i64 noundef %119, i64 noundef %120, ptr noundef @.str.106)
  br label %122

122:                                              ; preds = %118
  store i8 1, ptr %19, align 1
  %123 = load i8, ptr %19, align 1
  %124 = trunc i8 %123 to i1
  %125 = zext i1 %124 to i8
  store i8 %125, ptr %19, align 1
  br label %126

126:                                              ; preds = %122
  br label %127

127:                                              ; preds = %126
  store i32 -1, ptr %18, align 4
  br label %131

128:                                              ; No predecessors!
  br label %129

129:                                              ; preds = %128
  br label %130

130:                                              ; preds = %129, %107
  br label %131

131:                                              ; preds = %130, %127, %104, %82, %64, %42
  %132 = load i32, ptr %18, align 4
  ret i32 %132
}