; Function Attrs: nounwind uwtable
define internal fastcc range(i32 -1, 1) i32 @H5A__exists_by_name_api_common(i64 noundef %0, ptr noundef %1, ptr noundef %2, ptr noundef %3, i64 noundef %4, ptr noundef %5, ptr noundef %6) unnamed_addr #0 {
  %8 = alloca %struct.H5VL_attr_specific_args_t, align 8
  %9 = alloca ptr, align 8
  %10 = alloca %struct.H5VL_loc_params_t, align 8
  store ptr null, ptr %9, align 8
  %.not = icmp eq ptr %6, null
  %11 = select i1 %.not, ptr %9, ptr %6
  %12 = tail call i32 @H5I_get_type(i64 noundef %0) #4
  %13 = icmp eq i32 %12, 7
  br i1 %13, label %14, label %18

14:                                               ; preds = %7
  %15 = load i64, ptr @H5E_ARGS_g, align 8
  %16 = load i64, ptr @H5E_BADTYPE_g, align 8
  %17 = tail call i32 (ptr, ptr, i32, i64, i64, ptr, ...) @H5E_printf_stack(ptr noundef nonnull @.str, ptr noundef nonnull @__func__.H5A__exists_by_name_api_common, i32 noundef 2423, i64 noundef %15, i64 noundef %16, ptr noundef nonnull @.str.43) #4
  br label %59

18:                                               ; preds = %7
  %.not21 = icmp eq ptr %2, null
  br i1 %.not21, label %21, label %19

19:                                               ; preds = %18
  %20 = load i8, ptr %2, align 1
  %.not22 = icmp eq i8 %20, 0
  br i1 %.not22, label %21, label %25

21:                                               ; preds = %18, %19
  %22 = load i64, ptr @H5E_ARGS_g, align 8
  %23 = load i64, ptr @H5E_BADVALUE_g, align 8
  %24 = tail call i32 (ptr, ptr, i32, i64, i64, ptr, ...) @H5E_printf_stack(ptr noundef nonnull @.str, ptr noundef nonnull @__func__.H5A__exists_by_name_api_common, i32 noundef 2425, i64 noundef %22, i64 noundef %23, ptr noundef nonnull @.str.55) #4
  br label %59

25:                                               ; preds = %19
  %26 = icmp eq ptr %3, null
  br i1 %26, label %27, label %31

27:                                               ; preds = %25
  %28 = load i64, ptr @H5E_ARGS_g, align 8
  %29 = load i64, ptr @H5E_BADVALUE_g, align 8
  %30 = tail call i32 (ptr, ptr, i32, i64, i64, ptr, ...) @H5E_printf_stack(ptr noundef nonnull @.str, ptr noundef nonnull @__func__.H5A__exists_by_name_api_common, i32 noundef 2427, i64 noundef %28, i64 noundef %29, ptr noundef nonnull @.str.105) #4
  br label %59

31:                                               ; preds = %25
  %32 = call i32 @H5VL_setup_name_args(i64 noundef %0, ptr noundef %1, i1 noundef zeroext false, i64 noundef %4, ptr noundef nonnull %11, ptr noundef nonnull %10) #4
  %33 = icmp slt i32 %32, 0
  br i1 %33, label %34, label %38

34:                                               ; preds = %31
  %35 = load i64, ptr @H5E_ATTR_g, align 8
  %36 = load i64, ptr @H5E_CANTSET_g, align 8
  %37 = call i32 (ptr, ptr, i32, i64, i64, ptr, ...) @H5E_printf_stack(ptr noundef nonnull @.str, ptr noundef nonnull @__func__.H5A__exists_by_name_api_common, i32 noundef 2432, i64 noundef %35, i64 noundef %36, ptr noundef nonnull @.str.88) #4
  br label %59

38:                                               ; preds = %31
  %39 = load ptr, ptr %11, align 8
  call void @llvm.lifetime.start.p0(i64 40, ptr nonnull %8)
  %40 = load i8, ptr %2, align 1
  %.not.i = icmp eq i8 %40, 0
  br i1 %.not.i, label %41, label %45

41:                                               ; preds = %38
  %42 = load i64, ptr @H5E_ARGS_g, align 8
  %43 = load i64, ptr @H5E_BADVALUE_g, align 8
  %44 = call i32 (ptr, ptr, i32, i64, i64, ptr, ...) @H5E_printf_stack(ptr noundef nonnull @.str, ptr noundef nonnull @__func__.H5A__exists_common, i32 noundef 2276, i64 noundef %42, i64 noundef %43, ptr noundef nonnull @.str.55) #4
  br label %55

45:                                               ; preds = %38
  store i32 2, ptr %8, align 8
  %46 = getelementptr inbounds i8, ptr %8, i64 8
  store ptr %2, ptr %46, align 8
  %47 = getelementptr inbounds i8, ptr %8, i64 16
  store ptr %3, ptr %47, align 8
  %48 = load i64, ptr @H5P_LST_DATASET_XFER_ID_g, align 8
  %49 = call i32 @H5VL_attr_specific(ptr noundef %39, ptr noundef nonnull %10, ptr noundef nonnull %8, i64 noundef %48, ptr noundef %5) #4
  %50 = icmp slt i32 %49, 0
  br i1 %50, label %51, label %H5A__exists_common.exit

51:                                               ; preds = %45
  %52 = load i64, ptr @H5E_ATTR_g, align 8
  %53 = load i64, ptr @H5E_CANTGET_g, align 8
  %54 = call i32 (ptr, ptr, i32, i64, i64, ptr, ...) @H5E_printf_stack(ptr noundef nonnull @.str, ptr noundef nonnull @__func__.H5A__exists_common, i32 noundef 2285, i64 noundef %52, i64 noundef %53, ptr noundef nonnull @.str.106) #4
  br label %55

H5A__exists_common.exit:                          ; preds = %45
  call void @llvm.lifetime.end.p0(i64 40, ptr nonnull %8)
  br label %59

55:                                               ; preds = %51, %41
  call void @llvm.lifetime.end.p0(i64 40, ptr nonnull %8)
  %56 = load i64, ptr @H5E_ATTR_g, align 8
  %57 = load i64, ptr @H5E_CANTGET_g, align 8
  %58 = call i32 (ptr, ptr, i32, i64, i64, ptr, ...) @H5E_printf_stack(ptr noundef nonnull @.str, ptr noundef nonnull @__func__.H5A__exists_by_name_api_common, i32 noundef 2436, i64 noundef %56, i64 noundef %57, ptr noundef nonnull @.str.106) #4
  br label %59

59:                                               ; preds = %H5A__exists_common.exit, %55, %34, %27, %21, %14
  %.0 = phi i32 [ -1, %14 ], [ -1, %27 ], [ -1, %34 ], [ -1, %55 ], [ 0, %H5A__exists_common.exit ], [ -1, %21 ]
  ret i32 %.0
}